target datalayout = "e-m:e-p270:32:32-p271:32:32-p272:64:64-i64:64-i128:128-f80:128-n8:16:32:64-S128"
target triple = "x86_64-pc-linux-gnu"

%struct.mi_page_queue_s = type { ptr, ptr, i64 }
%struct.mi_stats_s = type { %struct.mi_stat_count_s, %struct.mi_stat_count_s, %struct.mi_stat_count_s, %struct.mi_stat_count_s, %struct.mi_stat_count_s, %struct.mi_stat_count_s, %struct.mi_stat_count_s, %struct.mi_stat_count_s, %struct.mi_stat_count_s, %struct.mi_stat_count_s, %struct.mi_stat_count_s, %struct.mi_stat_count_s, %struct.mi_stat_count_s, %struct.mi_stat_count_s, %struct.mi_stat_count_s, %struct.mi_stat_counter_s, %struct.mi_stat_counter_s, %struct.mi_stat_counter_s, %struct.mi_stat_counter_s, %struct.mi_stat_counter_s, %struct.mi_stat_counter_s, %struct.mi_stat_counter_s, %struct.mi_stat_counter_s, %struct.mi_stat_counter_s, %struct.mi_stat_counter_s, %struct.mi_stat_counter_s, %struct.mi_stat_counter_s, %struct.mi_stat_counter_s, %struct.mi_stat_counter_s }
%struct.mi_stat_count_s = type { i64, i64, i64, i64 }
%struct.mi_stat_counter_s = type { i64, i64 }
%struct.mi_memid_s = type { %union.anon, i8, i8, i8, i32 }
%union.anon = type { %struct.mi_memid_os_info }
%struct.mi_memid_os_info = type { ptr, i64 }
%struct.mi_segments_tld_s = type { [36 x %struct.mi_span_queue_s], i64, i64, i64, i64, i64, ptr, ptr }
%struct.mi_span_queue_s = type { ptr, ptr, i64 }
%struct.mi_heap_s = type { ptr, ptr, i64, i32, i64, [2 x i64], %struct.mi_random_cxt_s, i64, i64, i64, ptr, i8, i8, [129 x ptr], [75 x %struct.mi_page_queue_s] }
%struct.mi_random_cxt_s = type { [16 x i32], [16 x i32], i32, i8 }
%struct.mi_tld_s = type { i64, i8, ptr, ptr, %struct.mi_segments_tld_s, %struct.mi_stats_s }
%struct.mi_thread_data_s = type { %struct.mi_heap_s, %struct.mi_tld_s, %struct.mi_memid_s }

@td_cache = internal global [32 x ptr] zeroinitializer, align 16

; Function Attrs: nounwind uwtable
define hidden void @_mi_thread_data_collect() #0 {
  %1 = alloca i32, align 4
  %2 = alloca ptr, align 8
  %3 = alloca ptr, align 8
  %4 = alloca ptr, align 8
  %5 = alloca ptr, align 8
  call void @llvm.lifetime.start.p0(i64 4, ptr %1) #12
  store i32 0, ptr %1, align 4, !tbaa !22
  br label %6

6:                                                ; preds = %33, %0
  %7 = load i32, ptr %1, align 4, !tbaa !22
  %8 = icmp slt i32 %7, 32
  br i1 %8, label %10, label %9

9:                                                ; preds = %6
  call void @llvm.lifetime.end.p0(i64 4, ptr %1) #12
  br label %36

10:                                               ; preds = %6
  call void @llvm.lifetime.start.p0(i64 8, ptr %2) #12
  %11 = load i32, ptr %1, align 4, !tbaa !22
  %12 = sext i32 %11 to i64
  %13 = getelementptr inbounds [32 x ptr], ptr @td_cache, i64 0, i64 %12
  %14 = load atomic i64, ptr %13 monotonic, align 8
  store i64 %14, ptr %3, align 8
  %15 = load ptr, ptr %3, align 8, !tbaa !41
  store ptr %15, ptr %2, align 8, !tbaa !41
  %16 = load ptr, ptr %2, align 8, !tbaa !41
  %17 = icmp ne ptr %16, null
  br i1 %17, label %18, label %32

18:                                               ; preds = %10
  %19 = load i32, ptr %1, align 4, !tbaa !22
  %20 = sext i32 %19 to i64
  %21 = getelementptr inbounds [32 x ptr], ptr @td_cache, i64 0, i64 %20
  store ptr null, ptr %4, align 8, !tbaa !41
  %22 = load i64, ptr %4, align 8
  %23 = atomicrmw xchg ptr %21, i64 %22 acq_rel, align 8
  store i64 %23, ptr %5, align 8
  %24 = load ptr, ptr %5, align 8, !tbaa !41
  store ptr %24, ptr %2, align 8, !tbaa !41
  %25 = load ptr, ptr %2, align 8, !tbaa !41
  %26 = icmp ne ptr %25, null
  br i1 %26, label %27, label %31

27:                                               ; preds = %18
  %28 = load ptr, ptr %2, align 8, !tbaa !41
  %29 = load ptr, ptr %2, align 8, !tbaa !41
  %30 = getelementptr inbounds nuw %struct.mi_thread_data_s, ptr %29, i32 0, i32 2
  call void @_mi_os_free(ptr noundef %28, i64 noundef 4744, ptr noundef byval(%struct.mi_memid_s) align 8 %30) #11
  br label %31

31:                                               ; preds = %27, %18
  br label %32

32:                                               ; preds = %31, %10
  call void @llvm.lifetime.end.p0(i64 8, ptr %2) #12
  br label %33

33:                                               ; preds = %32
  %34 = load i32, ptr %1, align 4, !tbaa !22
  %35 = add nsw i32 %34, 1
  store i32 %35, ptr %1, align 4, !tbaa !22
  br label %6, !llvm.loop !43

36:                                               ; preds = %9
  ret void
}