; Function Attrs: nounwind uwtable
define hidden void @_mi_thread_data_collect() local_unnamed_addr #1 {
  br label %2

1:                                                ; preds = %10
  ret void

2:                                                ; preds = %0, %10
  %indvars.iv = phi i64 [ 0, %0 ], [ %indvars.iv.next, %10 ]
  %3 = getelementptr inbounds nuw [32 x ptr], ptr @td_cache, i64 0, i64 %indvars.iv
  %4 = load atomic i64, ptr %3 monotonic, align 8
  %.not = icmp eq i64 %4, 0
  br i1 %.not, label %10, label %5

5:                                                ; preds = %2
  %6 = atomicrmw xchg ptr %3, i64 0 acq_rel, align 8
  %.not11 = icmp eq i64 %6, 0
  br i1 %.not11, label %10, label %7

7:                                                ; preds = %5
  %8 = inttoptr i64 %6 to ptr
  %9 = getelementptr inbounds nuw i8, ptr %8, i64 4720
  tail call void @_mi_os_free(ptr noundef nonnull %8, i64 noundef 4744, ptr noundef nonnull byval(%struct.mi_memid_s) align 8 %9) #14
  br label %10

10:                                               ; preds = %5, %7, %2
  %indvars.iv.next = add nuw nsw i64 %indvars.iv, 1
  %exitcond.not = icmp eq i64 %indvars.iv.next, 32
  br i1 %exitcond.not, label %1, label %2, !llvm.loop !39
}